; Function Attrs: mustprogress uwtable
define void @_ZNK20ExtraSampleGPUPlugin10filterNameEi(ptr dead_on_unwind noalias nocapture writable writeonly sret(%class.QString) align 8 %0, ptr nocapture noundef nonnull readnone align 8 dereferenceable(80) %1, i32 noundef %2) unnamed_addr #9 align 2 {
  %4 = icmp eq i32 %2, 0
  br i1 %4, label %5, label %7

5:                                                ; preds = %3
  %6 = tail call noundef ptr @_ZN7QString16fromAscii_helperEPKci(ptr noundef nonnull @.str.8, i32 noundef 18)
  br label %9

7:                                                ; preds = %3
  %8 = tail call noundef ptr @_ZN7QString16fromAscii_helperEPKci(ptr noundef nonnull @.str.9, i32 noundef 0)
  br label %9

9:                                                ; preds = %7, %5
  %storemerge = phi ptr [ %8, %7 ], [ %6, %5 ]
  store ptr %storemerge, ptr %0, align 8
  ret void
}